target datalayout = "e-m:e-p270:32:32-p271:32:32-p272:64:64-i64:64-i128:128-f80:128-n8:16:32:64-S128"
target triple = "x86_64-pc-linux-gnu"

%struct.AVFilterContext = type { ptr, ptr, ptr, ptr, ptr, i32, ptr, ptr, i32, ptr, ptr, i32, i32, ptr, ptr, ptr, ptr, i32, ptr, i32, i32 }
%struct.XFadeContext = type { ptr, i32, i64, i64, ptr, i32, i32, i32, i64, i64, i64, i64, i32, [2 x i32], [2 x ptr], i32, [4 x i16], [4 x i16], ptr, ptr }
%struct.AVRational = type { i32, i32 }
%struct.AVFrame = type { [8 x ptr], [8 x i32], ptr, i32, i32, i32, i32, i32, %struct.AVRational, i64, i64, %struct.AVRational, i32, ptr, i32, i32, [8 x ptr], ptr, i32, ptr, i32, i32, i32, i32, i32, i32, i32, i64, ptr, i32, ptr, ptr, i64, i64, i64, i64, ptr, %struct.AVChannelLayout, i64 }
%struct.AVChannelLayout = type { i32, i32, %union.anon.1, ptr }
%union.anon.1 = type { i64 }

; Function Attrs: inlinehint nounwind uwtable
define internal float @mix(float noundef %0, float noundef %1, float noundef %2) #4 {
  %4 = alloca float, align 4
  %5 = alloca float, align 4
  %6 = alloca float, align 4
  store float %0, ptr %4, align 4, !tbaa !90
  store float %1, ptr %5, align 4, !tbaa !90
  store float %2, ptr %6, align 4, !tbaa !90
  %7 = load float, ptr %4, align 4, !tbaa !90
  %8 = load float, ptr %6, align 4, !tbaa !90
  %9 = load float, ptr %5, align 4, !tbaa !90
  %10 = load float, ptr %6, align 4, !tbaa !90
  %11 = fsub nsz float 1.000000e+00, %10
  %12 = fmul nsz float %9, %11
  %13 = call nsz float @llvm.fmuladd.f32(float %7, float %8, float %12)
  ret float %13
}

; Function Attrs: nounwind uwtable
define internal void @fade16_transition(ptr noundef %0, ptr noundef %1, ptr noundef %2, ptr noundef %3, float noundef %4, i32 noundef %5, i32 noundef %6, i32 noundef %7) #1 {
  %9 = alloca ptr, align 8
  %10 = alloca ptr, align 8
  %11 = alloca ptr, align 8
  %12 = alloca ptr, align 8
  %13 = alloca float, align 4
  %14 = alloca i32, align 4
  %15 = alloca i32, align 4
  %16 = alloca i32, align 4
  %17 = alloca ptr, align 8
  %18 = alloca i32, align 4
  %19 = alloca i32, align 4
  %20 = alloca i32, align 4
  %21 = alloca i32, align 4
  %22 = alloca ptr, align 8
  %23 = alloca ptr, align 8
  %24 = alloca ptr, align 8
  %25 = alloca i32, align 4
  %26 = alloca i32, align 4
  store ptr %0, ptr %9, align 8, !tbaa !4
  store ptr %1, ptr %10, align 8, !tbaa !36
  store ptr %2, ptr %11, align 8, !tbaa !36
  store ptr %3, ptr %12, align 8, !tbaa !36
  store float %4, ptr %13, align 4, !tbaa !90
  store i32 %5, ptr %14, align 4, !tbaa !32
  store i32 %6, ptr %15, align 4, !tbaa !32
  store i32 %7, ptr %16, align 4, !tbaa !32
  call void @llvm.lifetime.start.p0(i64 8, ptr %17) #10
  %27 = load ptr, ptr %9, align 8, !tbaa !4
  %28 = getelementptr inbounds nuw %struct.AVFilterContext, ptr %27, i32 0, i32 9
  %29 = load ptr, ptr %28, align 8, !tbaa !9
  store ptr %29, ptr %17, align 8, !tbaa !22
  call void @llvm.lifetime.start.p0(i64 4, ptr %18) #10
  %30 = load i32, ptr %15, align 4, !tbaa !32
  %31 = load i32, ptr %14, align 4, !tbaa !32
  %32 = sub nsw i32 %30, %31
  store i32 %32, ptr %18, align 4, !tbaa !32
  call void @llvm.lifetime.start.p0(i64 4, ptr %19) #10
  %33 = load ptr, ptr %12, align 8, !tbaa !36
  %34 = getelementptr inbounds nuw %struct.AVFrame, ptr %33, i32 0, i32 3
  %35 = load i32, ptr %34, align 8, !tbaa !92
  store i32 %35, ptr %19, align 4, !tbaa !32
  call void @llvm.lifetime.start.p0(i64 4, ptr %20) #10
  store i32 0, ptr %20, align 4, !tbaa !32
  br label %36

36:                                               ; preds = %161, %8
  %37 = load i32, ptr %20, align 4, !tbaa !32
  %38 = load ptr, ptr %17, align 8, !tbaa !22
  %39 = getelementptr inbounds nuw %struct.XFadeContext, ptr %38, i32 0, i32 5
  %40 = load i32, ptr %39, align 8, !tbaa !82
  %41 = icmp slt i32 %37, %40
  br i1 %41, label %43, label %42

42:                                               ; preds = %36
  store i32 2, ptr %21, align 4
  call void @llvm.lifetime.end.p0(i64 4, ptr %20) #10
  br label %164

43:                                               ; preds = %36
  call void @llvm.lifetime.start.p0(i64 8, ptr %22) #10
  %44 = load ptr, ptr %10, align 8, !tbaa !36
  %45 = getelementptr inbounds nuw %struct.AVFrame, ptr %44, i32 0, i32 0
  %46 = load i32, ptr %20, align 4, !tbaa !32
  %47 = sext i32 %46 to i64
  %48 = getelementptr inbounds [8 x ptr], ptr %45, i64 0, i64 %47
  %49 = load ptr, ptr %48, align 8, !tbaa !96
  %50 = load i32, ptr %14, align 4, !tbaa !32
  %51 = load ptr, ptr %10, align 8, !tbaa !36
  %52 = getelementptr inbounds nuw %struct.AVFrame, ptr %51, i32 0, i32 1
  %53 = load i32, ptr %20, align 4, !tbaa !32
  %54 = sext i32 %53 to i64
  %55 = getelementptr inbounds [8 x i32], ptr %52, i64 0, i64 %54
  %56 = load i32, ptr %55, align 4, !tbaa !32
  %57 = mul nsw i32 %50, %56
  %58 = sext i32 %57 to i64
  %59 = getelementptr inbounds i8, ptr %49, i64 %58
  store ptr %59, ptr %22, align 8, !tbaa !101
  call void @llvm.lifetime.start.p0(i64 8, ptr %23) #10
  %60 = load ptr, ptr %11, align 8, !tbaa !36
  %61 = getelementptr inbounds nuw %struct.AVFrame, ptr %60, i32 0, i32 0
  %62 = load i32, ptr %20, align 4, !tbaa !32
  %63 = sext i32 %62 to i64
  %64 = getelementptr inbounds [8 x ptr], ptr %61, i64 0, i64 %63
  %65 = load ptr, ptr %64, align 8, !tbaa !96
  %66 = load i32, ptr %14, align 4, !tbaa !32
  %67 = load ptr, ptr %11, align 8, !tbaa !36
  %68 = getelementptr inbounds nuw %struct.AVFrame, ptr %67, i32 0, i32 1
  %69 = load i32, ptr %20, align 4, !tbaa !32
  %70 = sext i32 %69 to i64
  %71 = getelementptr inbounds [8 x i32], ptr %68, i64 0, i64 %70
  %72 = load i32, ptr %71, align 4, !tbaa !32
  %73 = mul nsw i32 %66, %72
  %74 = sext i32 %73 to i64
  %75 = getelementptr inbounds i8, ptr %65, i64 %74
  store ptr %75, ptr %23, align 8, !tbaa !101
  call void @llvm.lifetime.start.p0(i64 8, ptr %24) #10
  %76 = load ptr, ptr %12, align 8, !tbaa !36
  %77 = getelementptr inbounds nuw %struct.AVFrame, ptr %76, i32 0, i32 0
  %78 = load i32, ptr %20, align 4, !tbaa !32
  %79 = sext i32 %78 to i64
  %80 = getelementptr inbounds [8 x ptr], ptr %77, i64 0, i64 %79
  %81 = load ptr, ptr %80, align 8, !tbaa !96
  %82 = load i32, ptr %14, align 4, !tbaa !32
  %83 = load ptr, ptr %12, align 8, !tbaa !36
  %84 = getelementptr inbounds nuw %struct.AVFrame, ptr %83, i32 0, i32 1
  %85 = load i32, ptr %20, align 4, !tbaa !32
  %86 = sext i32 %85 to i64
  %87 = getelementptr inbounds [8 x i32], ptr %84, i64 0, i64 %86
  %88 = load i32, ptr %87, align 4, !tbaa !32
  %89 = mul nsw i32 %82, %88
  %90 = sext i32 %89 to i64
  %91 = getelementptr inbounds i8, ptr %81, i64 %90
  store ptr %91, ptr %24, align 8, !tbaa !101
  call void @llvm.lifetime.start.p0(i64 4, ptr %25) #10
  store i32 0, ptr %25, align 4, !tbaa !32
  br label %92

92:                                               ; preds = %157, %43
  %93 = load i32, ptr %25, align 4, !tbaa !32
  %94 = load i32, ptr %18, align 4, !tbaa !32
  %95 = icmp slt i32 %93, %94
  br i1 %95, label %97, label %96

96:                                               ; preds = %92
  store i32 5, ptr %21, align 4
  call void @llvm.lifetime.end.p0(i64 4, ptr %25) #10
  br label %160

97:                                               ; preds = %92
  call void @llvm.lifetime.start.p0(i64 4, ptr %26) #10
  store i32 0, ptr %26, align 4, !tbaa !32
  br label %98

98:                                               ; preds = %123, %97
  %99 = load i32, ptr %26, align 4, !tbaa !32
  %100 = load i32, ptr %19, align 4, !tbaa !32
  %101 = icmp slt i32 %99, %100
  br i1 %101, label %103, label %102

102:                                              ; preds = %98
  store i32 8, ptr %21, align 4
  call void @llvm.lifetime.end.p0(i64 4, ptr %26) #10
  br label %126

103:                                              ; preds = %98
  %104 = load ptr, ptr %22, align 8, !tbaa !101
  %105 = load i32, ptr %26, align 4, !tbaa !32
  %106 = sext i32 %105 to i64
  %107 = getelementptr inbounds i16, ptr %104, i64 %106
  %108 = load i16, ptr %107, align 2, !tbaa !84
  %109 = uitofp i16 %108 to float
  %110 = load ptr, ptr %23, align 8, !tbaa !101
  %111 = load i32, ptr %26, align 4, !tbaa !32
  %112 = sext i32 %111 to i64
  %113 = getelementptr inbounds i16, ptr %110, i64 %112
  %114 = load i16, ptr %113, align 2, !tbaa !84
  %115 = uitofp i16 %114 to float
  %116 = load float, ptr %13, align 4, !tbaa !90
  %117 = call nsz float @mix(float noundef %109, float noundef %115, float noundef %116)
  %118 = fptoui float %117 to i16
  %119 = load ptr, ptr %24, align 8, !tbaa !101
  %120 = load i32, ptr %26, align 4, !tbaa !32
  %121 = sext i32 %120 to i64
  %122 = getelementptr inbounds i16, ptr %119, i64 %121
  store i16 %118, ptr %122, align 2, !tbaa !84
  br label %123

123:                                              ; preds = %103
  %124 = load i32, ptr %26, align 4, !tbaa !32
  %125 = add nsw i32 %124, 1
  store i32 %125, ptr %26, align 4, !tbaa !32
  br label %98, !llvm.loop !109

126:                                              ; preds = %102
  %127 = load ptr, ptr %12, align 8, !tbaa !36
  %128 = getelementptr inbounds nuw %struct.AVFrame, ptr %127, i32 0, i32 1
  %129 = load i32, ptr %20, align 4, !tbaa !32
  %130 = sext i32 %129 to i64
  %131 = getelementptr inbounds [8 x i32], ptr %128, i64 0, i64 %130
  %132 = load i32, ptr %131, align 4, !tbaa !32
  %133 = sdiv i32 %132, 2
  %134 = load ptr, ptr %24, align 8, !tbaa !101
  %135 = sext i32 %133 to i64
  %136 = getelementptr inbounds i16, ptr %134, i64 %135
  store ptr %136, ptr %24, align 8, !tbaa !101
  %137 = load ptr, ptr %10, align 8, !tbaa !36
  %138 = getelementptr inbounds nuw %struct.AVFrame, ptr %137, i32 0, i32 1
  %139 = load i32, ptr %20, align 4, !tbaa !32
  %140 = sext i32 %139 to i64
  %141 = getelementptr inbounds [8 x i32], ptr %138, i64 0, i64 %140
  %142 = load i32, ptr %141, align 4, !tbaa !32
  %143 = sdiv i32 %142, 2
  %144 = load ptr, ptr %22, align 8, !tbaa !101
  %145 = sext i32 %143 to i64
  %146 = getelementptr inbounds i16, ptr %144, i64 %145
  store ptr %146, ptr %22, align 8, !tbaa !101
  %147 = load ptr, ptr %11, align 8, !tbaa !36
  %148 = getelementptr inbounds nuw %struct.AVFrame, ptr %147, i32 0, i32 1
  %149 = load i32, ptr %20, align 4, !tbaa !32
  %150 = sext i32 %149 to i64
  %151 = getelementptr inbounds [8 x i32], ptr %148, i64 0, i64 %150
  %152 = load i32, ptr %151, align 4, !tbaa !32
  %153 = sdiv i32 %152, 2
  %154 = load ptr, ptr %23, align 8, !tbaa !101
  %155 = sext i32 %153 to i64
  %156 = getelementptr inbounds i16, ptr %154, i64 %155
  store ptr %156, ptr %23, align 8, !tbaa !101
  br label %157

157:                                              ; preds = %126
  %158 = load i32, ptr %25, align 4, !tbaa !32
  %159 = add nsw i32 %158, 1
  store i32 %159, ptr %25, align 4, !tbaa !32
  br label %92, !llvm.loop !110

160:                                              ; preds = %96
  call void @llvm.lifetime.end.p0(i64 8, ptr %24) #10
  call void @llvm.lifetime.end.p0(i64 8, ptr %23) #10
  call void @llvm.lifetime.end.p0(i64 8, ptr %22) #10
  br label %161

161:                                              ; preds = %160
  %162 = load i32, ptr %20, align 4, !tbaa !32
  %163 = add nsw i32 %162, 1
  store i32 %163, ptr %20, align 4, !tbaa !32
  br label %36, !llvm.loop !111

164:                                              ; preds = %42
  call void @llvm.lifetime.end.p0(i64 4, ptr %19) #10
  call void @llvm.lifetime.end.p0(i64 4, ptr %18) #10
  call void @llvm.lifetime.end.p0(i64 8, ptr %17) #10
  ret void
}