; Function Attrs: nofree norecurse nosync nounwind memory(readwrite, inaccessiblemem: none) uwtable
define internal void @fade16_transition(ptr noundef readonly captures(none) %0, ptr noundef readonly captures(none) %1, ptr noundef readonly captures(none) %2, ptr noundef readonly captures(none) %3, float noundef %4, i32 noundef %5, i32 noundef %6, i32 %7) #6 {
  %9 = getelementptr inbounds nuw i8, ptr %0, i64 72
  %10 = load ptr, ptr %9, align 8, !tbaa !4
  %11 = sub i32 %6, %5
  %12 = getelementptr inbounds nuw i8, ptr %3, i64 104
  %13 = load i32, ptr %12, align 8, !tbaa !85
  %14 = getelementptr inbounds nuw i8, ptr %10, i64 40
  %15 = load i32, ptr %14, align 8, !tbaa !77
  %16 = icmp sgt i32 %15, 0
  br i1 %16, label %.lr.ph, label %._crit_edge

.lr.ph:                                           ; preds = %8
  %17 = getelementptr inbounds nuw i8, ptr %1, i64 64
  %18 = getelementptr inbounds nuw i8, ptr %2, i64 64
  %19 = getelementptr inbounds nuw i8, ptr %3, i64 64
  %20 = icmp sgt i32 %11, 0
  %21 = fsub nsz float 1.000000e+00, %4
  %22 = icmp sgt i32 %13, 0
  %or.cond = select i1 %20, i1 %22, i1 false
  br i1 %or.cond, label %.preheader.lr.ph.us.us.preheader, label %._crit_edge

.preheader.lr.ph.us.us.preheader:                 ; preds = %.lr.ph
  %wide.trip.count69 = zext nneg i32 %15 to i64
  %wide.trip.count = zext nneg i32 %13 to i64
  br label %.preheader.lr.ph.us.us

.preheader.lr.ph.us.us:                           ; preds = %.preheader.lr.ph.us.us.preheader, %._crit_edge53.split.us.us.us
  %indvars.iv66 = phi i64 [ 0, %.preheader.lr.ph.us.us.preheader ], [ %indvars.iv.next67, %._crit_edge53.split.us.us.us ]
  %23 = getelementptr inbounds nuw [8 x ptr], ptr %1, i64 0, i64 %indvars.iv66
  %24 = load ptr, ptr %23, align 8, !tbaa !89
  %25 = getelementptr inbounds nuw [8 x i32], ptr %17, i64 0, i64 %indvars.iv66
  %26 = load i32, ptr %25, align 4, !tbaa !31
  %27 = mul nsw i32 %26, %5
  %28 = sext i32 %27 to i64
  %29 = getelementptr inbounds i8, ptr %24, i64 %28
  %30 = getelementptr inbounds nuw [8 x ptr], ptr %2, i64 0, i64 %indvars.iv66
  %31 = load ptr, ptr %30, align 8, !tbaa !89
  %32 = getelementptr inbounds nuw [8 x i32], ptr %18, i64 0, i64 %indvars.iv66
  %33 = load i32, ptr %32, align 4, !tbaa !31
  %34 = mul nsw i32 %33, %5
  %35 = sext i32 %34 to i64
  %36 = getelementptr inbounds i8, ptr %31, i64 %35
  %37 = getelementptr inbounds nuw [8 x ptr], ptr %3, i64 0, i64 %indvars.iv66
  %38 = load ptr, ptr %37, align 8, !tbaa !89
  %39 = getelementptr inbounds nuw [8 x i32], ptr %19, i64 0, i64 %indvars.iv66
  %40 = load i32, ptr %39, align 4, !tbaa !31
  %41 = mul nsw i32 %40, %5
  %42 = sext i32 %41 to i64
  %43 = getelementptr inbounds i8, ptr %38, i64 %42
  %44 = sdiv i32 %40, 2
  %45 = sext i32 %44 to i64
  %46 = sdiv i32 %26, 2
  %47 = sext i32 %46 to i64
  %48 = sdiv i32 %33, 2
  %49 = sext i32 %48 to i64
  br label %.preheader.us.us.us

.preheader.us.us.us:                              ; preds = %._crit_edge.us.us.us, %.preheader.lr.ph.us.us
  %.04352.us.us.us = phi i32 [ 0, %.preheader.lr.ph.us.us ], [ %64, %._crit_edge.us.us.us ]
  %.04451.us.us.us = phi ptr [ %43, %.preheader.lr.ph.us.us ], [ %61, %._crit_edge.us.us.us ]
  %.04550.us.us.us = phi ptr [ %36, %.preheader.lr.ph.us.us ], [ %63, %._crit_edge.us.us.us ]
  %.04649.us.us.us = phi ptr [ %29, %.preheader.lr.ph.us.us ], [ %62, %._crit_edge.us.us.us ]
  br label %50

50:                                               ; preds = %50, %.preheader.us.us.us
  %indvars.iv = phi i64 [ %indvars.iv.next, %50 ], [ 0, %.preheader.us.us.us ]
  %51 = getelementptr inbounds nuw i16, ptr %.04649.us.us.us, i64 %indvars.iv
  %52 = load i16, ptr %51, align 2, !tbaa !79
  %53 = uitofp i16 %52 to float
  %54 = getelementptr inbounds nuw i16, ptr %.04550.us.us.us, i64 %indvars.iv
  %55 = load i16, ptr %54, align 2, !tbaa !79
  %56 = uitofp i16 %55 to float
  %57 = fmul nsz float %21, %56
  %58 = tail call nsz noundef float @llvm.fmuladd.f32(float %53, float %4, float %57)
  %59 = fptoui float %58 to i16
  %60 = getelementptr inbounds nuw i16, ptr %.04451.us.us.us, i64 %indvars.iv
  store i16 %59, ptr %60, align 2, !tbaa !79
  %indvars.iv.next = add nuw nsw i64 %indvars.iv, 1
  %exitcond.not = icmp eq i64 %indvars.iv.next, %wide.trip.count
  br i1 %exitcond.not, label %._crit_edge.us.us.us, label %50, !llvm.loop !100

._crit_edge.us.us.us:                             ; preds = %50
  %61 = getelementptr inbounds i16, ptr %.04451.us.us.us, i64 %45
  %62 = getelementptr inbounds i16, ptr %.04649.us.us.us, i64 %47
  %63 = getelementptr inbounds i16, ptr %.04550.us.us.us, i64 %49
  %64 = add nuw nsw i32 %.04352.us.us.us, 1
  %exitcond65.not = icmp eq i32 %64, %11
  br i1 %exitcond65.not, label %._crit_edge53.split.us.us.us, label %.preheader.us.us.us, !llvm.loop !101

._crit_edge53.split.us.us.us:                     ; preds = %._crit_edge.us.us.us
  %indvars.iv.next67 = add nuw nsw i64 %indvars.iv66, 1
  %exitcond70.not = icmp eq i64 %indvars.iv.next67, %wide.trip.count69
  br i1 %exitcond70.not, label %._crit_edge, label %.preheader.lr.ph.us.us, !llvm.loop !102

._crit_edge:                                      ; preds = %._crit_edge53.split.us.us.us, %.lr.ph, %8
  ret void
}